target datalayout = "e-m:e-p270:32:32-p271:32:32-p272:64:64-i64:64-i128:128-f80:128-n8:16:32:64-S128"
target triple = "x86_64-pc-linux-gnu"

%struct._object = type { %union.anon, ptr }
%union.anon = type { i64 }
%struct.partialobject = type { %struct._object, ptr, ptr, ptr, ptr, ptr, ptr, i64, ptr }

@.str.29 = private unnamed_addr constant [11 x i8] c"O(O)(OOOO)\00", align 1
@_Py_NoneStruct = external global %struct._object, align 8

; Function Attrs: inlinehint nounwind uwtable
define internal ptr @_Py_TYPE(ptr noundef %0) #3 {
  %2 = alloca ptr, align 8
  store ptr %0, ptr %2, align 8, !tbaa !4
  %3 = load ptr, ptr %2, align 8, !tbaa !4
  %4 = getelementptr inbounds nuw %struct._object, ptr %3, i32 0, i32 1
  %5 = load ptr, ptr %4, align 8, !tbaa !129
  ret ptr %5
}

; Function Attrs: nounwind uwtable
define internal ptr @partial_reduce(ptr noundef %0, ptr noundef %1) #0 {
  %3 = alloca ptr, align 8
  %4 = alloca ptr, align 8
  %5 = alloca ptr, align 8
  store ptr %0, ptr %3, align 8, !tbaa !4
  store ptr %1, ptr %4, align 8, !tbaa !4
  call void @llvm.lifetime.start.p0(i64 8, ptr %5) #8
  %6 = load ptr, ptr %3, align 8, !tbaa !4
  store ptr %6, ptr %5, align 8, !tbaa !9
  %7 = load ptr, ptr %5, align 8, !tbaa !9
  %8 = call ptr @_Py_TYPE(ptr noundef %7)
  %9 = load ptr, ptr %5, align 8, !tbaa !9
  %10 = getelementptr inbounds nuw %struct.partialobject, ptr %9, i32 0, i32 1
  %11 = load ptr, ptr %10, align 8, !tbaa !143
  %12 = load ptr, ptr %5, align 8, !tbaa !9
  %13 = getelementptr inbounds nuw %struct.partialobject, ptr %12, i32 0, i32 1
  %14 = load ptr, ptr %13, align 8, !tbaa !143
  %15 = load ptr, ptr %5, align 8, !tbaa !9
  %16 = getelementptr inbounds nuw %struct.partialobject, ptr %15, i32 0, i32 2
  %17 = load ptr, ptr %16, align 8, !tbaa !138
  %18 = load ptr, ptr %5, align 8, !tbaa !9
  %19 = getelementptr inbounds nuw %struct.partialobject, ptr %18, i32 0, i32 3
  %20 = load ptr, ptr %19, align 8, !tbaa !141
  %21 = load ptr, ptr %5, align 8, !tbaa !9
  %22 = getelementptr inbounds nuw %struct.partialobject, ptr %21, i32 0, i32 4
  %23 = load ptr, ptr %22, align 8, !tbaa !148
  %24 = icmp ne ptr %23, null
  br i1 %24, label %25, label %29

25:                                               ; preds = %2
  %26 = load ptr, ptr %5, align 8, !tbaa !9
  %27 = getelementptr inbounds nuw %struct.partialobject, ptr %26, i32 0, i32 4
  %28 = load ptr, ptr %27, align 8, !tbaa !148
  br label %30

29:                                               ; preds = %2
  br label %30

30:                                               ; preds = %29, %25
  %31 = phi ptr [ %28, %25 ], [ @_Py_NoneStruct, %29 ]
  %32 = call ptr (ptr, ...) @Py_BuildValue(ptr noundef @.str.29, ptr noundef %8, ptr noundef %11, ptr noundef %14, ptr noundef %17, ptr noundef %20, ptr noundef %31)
  call void @llvm.lifetime.end.p0(i64 8, ptr %5) #8
  ret ptr %32
}