; Function Attrs: nounwind uwtable
define internal ptr @partial_reduce(ptr noundef readonly captures(none) %0, ptr readnone captures(none) %1) #0 {
  %3 = getelementptr i8, ptr %0, i64 8
  %.val = load ptr, ptr %3, align 8, !tbaa !113
  %4 = getelementptr inbounds nuw i8, ptr %0, i64 16
  %5 = load ptr, ptr %4, align 8, !tbaa !134
  %6 = getelementptr inbounds nuw i8, ptr %0, i64 24
  %7 = load ptr, ptr %6, align 8, !tbaa !128
  %8 = getelementptr inbounds nuw i8, ptr %0, i64 32
  %9 = load ptr, ptr %8, align 8, !tbaa !132
  %10 = getelementptr inbounds nuw i8, ptr %0, i64 40
  %11 = load ptr, ptr %10, align 8, !tbaa !139
  %.not = icmp eq ptr %11, null
  %spec.select = select i1 %.not, ptr @_Py_NoneStruct, ptr %11
  %12 = tail call ptr (ptr, ...) @Py_BuildValue(ptr noundef nonnull @.str.29, ptr noundef %.val, ptr noundef %5, ptr noundef %5, ptr noundef %7, ptr noundef %9, ptr noundef nonnull %spec.select) #9
  ret ptr %12
}